target datalayout = "e-m:e-p270:32:32-p271:32:32-p272:64:64-i64:64-i128:128-f80:128-n8:16:32:64-S128"
target triple = "x86_64-pc-linux-gnu"

%struct.H5O_token_t = type { [16 x i8] }
%struct.H5O_info2_t = type { i64, %struct.H5O_token_t, i32, i32, i64, i64, i64, i64, i64 }
%struct.H5L_info2_t = type { i32, i8, i64, i32, %union.anon }
%union.anon = type { i64, [8 x i8] }

@.str = private unnamed_addr constant [2 x i8] c"/\00", align 1
@thefile = internal global i64 -1, align 8

; Function Attrs: nounwind uwtable
define i32 @ref_path_table_lookup(ptr noundef %0, ptr noundef %1) #0 {
  %3 = alloca i32, align 4
  %4 = alloca ptr, align 8
  %5 = alloca ptr, align 8
  %6 = alloca %struct.H5O_info2_t, align 8
  %7 = alloca %struct.H5L_info2_t, align 8
  store ptr %0, ptr %4, align 8
  store ptr %1, ptr %5, align 8
  %8 = load ptr, ptr %4, align 8
  %9 = icmp eq ptr %8, null
  br i1 %9, label %14, label %10

10:                                               ; preds = %2
  %11 = load ptr, ptr %4, align 8
  %12 = call i64 @strlen(ptr noundef %11) #7
  %13 = icmp eq i64 %12, 0
  br i1 %13, label %14, label %15

14:                                               ; preds = %10, %2
  store i32 -1, ptr %3, align 4
  br label %40

15:                                               ; preds = %10
  %16 = load ptr, ptr %4, align 8
  %17 = call i32 @strcmp(ptr noundef %16, ptr noundef @.str) #7
  %18 = icmp ne i32 %17, 0
  br i1 %18, label %19, label %31

19:                                               ; preds = %15
  %20 = load i64, ptr @thefile, align 8
  %21 = load ptr, ptr %4, align 8
  %22 = call i32 @H5Lget_info2(i64 noundef %20, ptr noundef %21, ptr noundef %7, i64 noundef 0)
  %23 = icmp slt i32 %22, 0
  br i1 %23, label %24, label %25

24:                                               ; preds = %19
  store i32 -1, ptr %3, align 4
  br label %40

25:                                               ; preds = %19
  %26 = getelementptr inbounds %struct.H5L_info2_t, ptr %7, i32 0, i32 0
  %27 = load i32, ptr %26, align 8
  %28 = icmp sge i32 %27, 64
  br i1 %28, label %29, label %30

29:                                               ; preds = %25
  store i32 -1, ptr %3, align 4
  br label %40

30:                                               ; preds = %25
  br label %31

31:                                               ; preds = %30, %15
  %32 = load i64, ptr @thefile, align 8
  %33 = load ptr, ptr %4, align 8
  %34 = call i32 @H5Oget_info_by_name3(i64 noundef %32, ptr noundef %33, ptr noundef %6, i32 noundef 1, i64 noundef 0)
  %35 = icmp slt i32 %34, 0
  br i1 %35, label %36, label %37

36:                                               ; preds = %31
  store i32 -1, ptr %3, align 4
  br label %40

37:                                               ; preds = %31
  %38 = load ptr, ptr %5, align 8
  %39 = getelementptr inbounds %struct.H5O_info2_t, ptr %6, i32 0, i32 1
  call void @llvm.memcpy.p0.p0.i64(ptr align 1 %38, ptr align 8 %39, i64 16, i1 false)
  store i32 0, ptr %3, align 4
  br label %40

40:                                               ; preds = %37, %36, %29, %24, %14
  %41 = load i32, ptr %3, align 4
  ret i32 %41
}