; Function Attrs: nounwind uwtable
define range(i32 -1, 1) i32 @ref_path_table_lookup(ptr noundef %0, ptr noundef writeonly captures(none) %1) local_unnamed_addr #0 {
  %3 = alloca %struct.H5O_info2_t, align 8
  %4 = alloca %struct.H5L_info2_t, align 8
  %5 = icmp eq ptr %0, null
  br i1 %5, label %21, label %6

6:                                                ; preds = %2
  %char0 = load i8, ptr %0, align 1
  switch i8 %char0, label %.tail.thread [
    i8 0, label %21
    i8 47, label %.tail
  ]

.tail:                                            ; preds = %6
  %7 = getelementptr inbounds nuw i8, ptr %0, i64 1
  %8 = load i8, ptr %7, align 1
  %9 = icmp eq i8 %8, 0
  br i1 %9, label %15, label %.tail.thread

.tail.thread:                                     ; preds = %6, %.tail
  %10 = load i64, ptr @thefile, align 8
  %11 = call i32 @H5Lget_info2(i64 noundef %10, ptr noundef nonnull %0, ptr noundef nonnull %4, i64 noundef 0) #10
  %12 = icmp slt i32 %11, 0
  %13 = load i32, ptr %4, align 8
  %14 = icmp sgt i32 %13, 63
  %or.cond = select i1 %12, i1 true, i1 %14
  br i1 %or.cond, label %21, label %15

15:                                               ; preds = %.tail.thread, %.tail
  %16 = load i64, ptr @thefile, align 8
  %17 = call i32 @H5Oget_info_by_name3(i64 noundef %16, ptr noundef nonnull %0, ptr noundef nonnull %3, i32 noundef 1, i64 noundef 0) #10
  %18 = icmp slt i32 %17, 0
  br i1 %18, label %21, label %19

19:                                               ; preds = %15
  %20 = getelementptr inbounds nuw i8, ptr %3, i64 8
  call void @llvm.memcpy.p0.p0.i64(ptr noundef nonnull align 1 dereferenceable(16) %1, ptr noundef nonnull align 8 dereferenceable(16) %20, i64 16, i1 false)
  br label %21

21:                                               ; preds = %6, %15, %.tail.thread, %2, %19
  %.0 = phi i32 [ 0, %19 ], [ -1, %6 ], [ -1, %2 ], [ -1, %.tail.thread ], [ -1, %15 ]
  ret i32 %.0
}